target datalayout = "e-m:e-p270:32:32-p271:32:32-p272:64:64-i64:64-i128:128-f80:128-n8:16:32:64-S128"
target triple = "x86_64-pc-linux-gnu"

%"class.std::__cxx11::list.19" = type { %"class.std::__cxx11::_List_base.20" }
%"class.std::__cxx11::_List_base.20" = type { %"struct.std::__cxx11::_List_base<int, std::allocator<int>>::_List_impl" }
%"struct.std::__cxx11::_List_base<int, std::allocator<int>>::_List_impl" = type { %"struct.std::__detail::_List_node_header" }
%"struct.std::__detail::_List_node_header" = type { %"struct.std::__detail::_List_node_base", i64 }
%"struct.std::__detail::_List_node_base" = type { ptr, ptr }
%class.FilterMutualInfoPlugin = type { %class.QObject, %class.FilterPlugin.base, %class.AlignSet, %class.MeshLabPlugin, %class.MeshLabPluginLogger }
%class.QObject = type { ptr, %class.QScopedPointer }
%class.QScopedPointer = type { ptr }
%class.FilterPlugin.base = type { ptr, ptr, %"class.std::__cxx11::list", %"class.std::__cxx11::list.19" }
%"class.std::__cxx11::list" = type { %"class.std::__cxx11::_List_base" }
%"class.std::__cxx11::_List_base" = type { %"struct.std::__cxx11::_List_base<QAction *, std::allocator<QAction *>>::_List_impl" }
%"struct.std::__cxx11::_List_base<QAction *, std::allocator<QAction *>>::_List_impl" = type { %"struct.std::__detail::_List_node_header" }
%class.AlignSet = type { i32, i32, ptr, i32, ptr, double, %"class.vcg::Shot", %"class.vcg::Box3", ptr, [6 x i32], i32, ptr, ptr, double, ptr }
%"class.vcg::Shot" = type { %"class.vcg::Camera", %"class.vcg::Shot<float>::ReferenceFrame" }
%"class.vcg::Camera" = type { float, %"class.vcg::Point2", %"class.vcg::Point2.24", %"class.vcg::Point2.24", %"class.vcg::Point2.24", %"struct.std::array", i32 }
%"class.vcg::Point2" = type { [2 x i32] }
%"class.vcg::Point2.24" = type { [2 x float] }
%"struct.std::array" = type { [4 x float] }
%"class.vcg::Shot<float>::ReferenceFrame" = type { %"class.vcg::Matrix44", %"class.vcg::Point3" }
%"class.vcg::Matrix44" = type { %"struct.std::array.25" }
%"struct.std::array.25" = type { [16 x float] }
%"class.vcg::Point3" = type { [3 x float] }
%"class.vcg::Box3" = type { %"class.vcg::Point3", %"class.vcg::Point3" }
%class.MeshLabPlugin = type { ptr, i8, %class.QFileInfo }
%class.QFileInfo = type { %class.QSharedDataPointer }
%class.QSharedDataPointer = type { ptr }
%class.MeshLabPluginLogger = type { ptr, ptr }

@.str.48 = private unnamed_addr constant [18 x i8] c"GL Initialization\00", align 1
@.str.49 = private unnamed_addr constant [27 x i8] c"GLEW initialization error!\00", align 1
@.str.50 = private unnamed_addr constant [26 x i8] c"GL_EXT_framebuffer_object\00", align 1
@.str.51 = private unnamed_addr constant [40 x i8] c"Graphics hardware does not support FBOs\00", align 1
@.str.52 = private unnamed_addr constant [21 x i8] c"GL_ARB_vertex_shader\00", align 1
@.str.53 = private unnamed_addr constant [23 x i8] c"GL_ARB_fragment_shader\00", align 1
@.str.54 = private unnamed_addr constant [22 x i8] c"GL_ARB_shader_objects\00", align 1
@.str.55 = private unnamed_addr constant [24 x i8] c"GL_ARB_shading_language\00", align 1
@.str.56 = private unnamed_addr constant [32 x i8] c"GL_ARB_texture_non_power_of_two\00", align 1
@.str.57 = private unnamed_addr constant [61 x i8] c"Graphics hardware does not support non-power-of-two textures\00", align 1
@.str.58 = private unnamed_addr constant [28 x i8] c"GL_ARB_vertex_buffer_object\00", align 1
@.str.59 = private unnamed_addr constant [57 x i8] c"Graphics hardware does not support vertex buffer objects\00", align 1
@.str.60 = private unnamed_addr constant [23 x i8] c"GL Initialization done\00", align 1

; Function Attrs: mustprogress uwtable
define noundef zeroext i1 @_ZN22FilterMutualInfoPlugin16initGLMutualInfoEv(ptr noundef nonnull align 8 dereferenceable(352) %0) #5 align 2 {
  %2 = alloca i1, align 1
  %3 = alloca ptr, align 8
  store ptr %0, ptr %3, align 8
  %4 = load ptr, ptr %3, align 8
  %5 = load ptr, ptr %4, align 8
  %6 = getelementptr i8, ptr %5, i64 -32
  %7 = load i64, ptr %6, align 8
  %8 = getelementptr inbounds i8, ptr %4, i64 %7
  call void @_ZNK19MeshLabPluginLogger3logEPKc(ptr noundef nonnull align 8 dereferenceable(16) %8, ptr noundef @.str.48)
  %9 = call noundef zeroext i1 @_ZN19GLExtensionsManager34initializeGLextensions_notThrowingEv()
  br i1 %9, label %15, label %10

10:                                               ; preds = %1
  %11 = load ptr, ptr %4, align 8
  %12 = getelementptr i8, ptr %11, i64 -32
  %13 = load i64, ptr %12, align 8
  %14 = getelementptr inbounds i8, ptr %4, i64 %13
  call void @_ZNK19MeshLabPluginLogger3logEPKc(ptr noundef nonnull align 8 dereferenceable(16) %14, ptr noundef @.str.49)
  store i1 false, ptr %2, align 1
  br label %59

15:                                               ; preds = %1
  %16 = call zeroext i8 @glewIsSupported(ptr noundef @.str.50)
  %17 = icmp ne i8 %16, 0
  br i1 %17, label %23, label %18

18:                                               ; preds = %15
  %19 = load ptr, ptr %4, align 8
  %20 = getelementptr i8, ptr %19, i64 -32
  %21 = load i64, ptr %20, align 8
  %22 = getelementptr inbounds i8, ptr %4, i64 %21
  call void @_ZNK19MeshLabPluginLogger3logEPKc(ptr noundef nonnull align 8 dereferenceable(16) %22, ptr noundef @.str.51)
  store i1 false, ptr %2, align 1
  br label %59

23:                                               ; preds = %15
  %24 = call zeroext i8 @glewIsSupported(ptr noundef @.str.52)
  %25 = icmp ne i8 %24, 0
  br i1 %25, label %26, label %35

26:                                               ; preds = %23
  %27 = call zeroext i8 @glewIsSupported(ptr noundef @.str.53)
  %28 = icmp ne i8 %27, 0
  br i1 %28, label %29, label %35

29:                                               ; preds = %26
  %30 = call zeroext i8 @glewIsSupported(ptr noundef @.str.54)
  %31 = icmp ne i8 %30, 0
  br i1 %31, label %32, label %35

32:                                               ; preds = %29
  %33 = call zeroext i8 @glewIsSupported(ptr noundef @.str.55)
  %34 = icmp ne i8 %33, 0
  br i1 %34, label %36, label %35

35:                                               ; preds = %32, %29, %26, %23
  br label %36

36:                                               ; preds = %35, %32
  %37 = call zeroext i8 @glewIsSupported(ptr noundef @.str.56)
  %38 = icmp ne i8 %37, 0
  br i1 %38, label %44, label %39

39:                                               ; preds = %36
  %40 = load ptr, ptr %4, align 8
  %41 = getelementptr i8, ptr %40, i64 -32
  %42 = load i64, ptr %41, align 8
  %43 = getelementptr inbounds i8, ptr %4, i64 %42
  call void @_ZNK19MeshLabPluginLogger3logEPKc(ptr noundef nonnull align 8 dereferenceable(16) %43, ptr noundef @.str.57)
  store i1 false, ptr %2, align 1
  br label %59

44:                                               ; preds = %36
  %45 = call zeroext i8 @glewIsSupported(ptr noundef @.str.58)
  %46 = icmp ne i8 %45, 0
  br i1 %46, label %52, label %47

47:                                               ; preds = %44
  %48 = load ptr, ptr %4, align 8
  %49 = getelementptr i8, ptr %48, i64 -32
  %50 = load i64, ptr %49, align 8
  %51 = getelementptr inbounds i8, ptr %4, i64 %50
  call void @_ZNK19MeshLabPluginLogger3logEPKc(ptr noundef nonnull align 8 dereferenceable(16) %51, ptr noundef @.str.59)
  store i1 false, ptr %2, align 1
  br label %59

52:                                               ; preds = %44
  call void @glEnable(i32 noundef 2977)
  call void @glDepthRange(double noundef 0.000000e+00, double noundef 1.000000e+00)
  call void @glHint(i32 noundef 3155, i32 noundef 4354)
  call void @glEnable(i32 noundef 2881)
  call void @glShadeModel(i32 noundef 7425)
  call void @glDisable(i32 noundef 2881)
  %53 = getelementptr inbounds %class.FilterMutualInfoPlugin, ptr %4, i32 0, i32 2
  call void @_ZN8AlignSet12initializeGLEv(ptr noundef nonnull align 8 dereferenceable(272) %53)
  %54 = getelementptr inbounds %class.FilterMutualInfoPlugin, ptr %4, i32 0, i32 2
  call void @_ZN8AlignSet6resizeEi(ptr noundef nonnull align 8 dereferenceable(272) %54, i32 noundef 800)
  %55 = load ptr, ptr %4, align 8
  %56 = getelementptr i8, ptr %55, i64 -32
  %57 = load i64, ptr %56, align 8
  %58 = getelementptr inbounds i8, ptr %4, i64 %57
  call void @_ZNK19MeshLabPluginLogger3logEPKc(ptr noundef nonnull align 8 dereferenceable(16) %58, ptr noundef @.str.60)
  store i1 true, ptr %2, align 1
  br label %59

59:                                               ; preds = %52, %47, %39, %18, %10
  %60 = load i1, ptr %2, align 1
  ret i1 %60
}