; Function Attrs: mustprogress uwtable
define noundef zeroext i1 @_ZN22FilterMutualInfoPlugin16initGLMutualInfoEv(ptr noundef nonnull align 8 dereferenceable(352) %0) local_unnamed_addr #9 align 2 {
  %2 = load ptr, ptr %0, align 8
  %3 = getelementptr i8, ptr %2, i64 -32
  %4 = load i64, ptr %3, align 8
  %5 = getelementptr inbounds i8, ptr %0, i64 %4
  tail call void @_ZNK19MeshLabPluginLogger3logEPKc(ptr noundef nonnull align 8 dereferenceable(16) %5, ptr noundef nonnull @.str.48)
  %6 = tail call noundef zeroext i1 @_ZN19GLExtensionsManager34initializeGLextensions_notThrowingEv()
  br i1 %6, label %7, label %23

7:                                                ; preds = %1
  %8 = tail call zeroext i8 @glewIsSupported(ptr noundef nonnull @.str.50)
  %.not = icmp eq i8 %8, 0
  br i1 %.not, label %23, label %9

9:                                                ; preds = %7
  %10 = tail call zeroext i8 @glewIsSupported(ptr noundef nonnull @.str.52)
  %.not2 = icmp eq i8 %10, 0
  br i1 %.not2, label %17, label %11

11:                                               ; preds = %9
  %12 = tail call zeroext i8 @glewIsSupported(ptr noundef nonnull @.str.53)
  %.not3 = icmp eq i8 %12, 0
  br i1 %.not3, label %17, label %13

13:                                               ; preds = %11
  %14 = tail call zeroext i8 @glewIsSupported(ptr noundef nonnull @.str.54)
  %.not4 = icmp eq i8 %14, 0
  br i1 %.not4, label %17, label %15

15:                                               ; preds = %13
  %16 = tail call zeroext i8 @glewIsSupported(ptr noundef nonnull @.str.55)
  br label %17

17:                                               ; preds = %15, %9, %11, %13
  %18 = tail call zeroext i8 @glewIsSupported(ptr noundef nonnull @.str.56)
  %.not5 = icmp eq i8 %18, 0
  br i1 %.not5, label %23, label %19

19:                                               ; preds = %17
  %20 = tail call zeroext i8 @glewIsSupported(ptr noundef nonnull @.str.58)
  %.not6 = icmp eq i8 %20, 0
  br i1 %.not6, label %23, label %21

21:                                               ; preds = %19
  tail call void @glEnable(i32 noundef 2977)
  tail call void @glDepthRange(double noundef 0.000000e+00, double noundef 1.000000e+00)
  tail call void @glHint(i32 noundef 3155, i32 noundef 4354)
  tail call void @glEnable(i32 noundef 2881)
  tail call void @glShadeModel(i32 noundef 7425)
  tail call void @glDisable(i32 noundef 2881)
  %22 = getelementptr inbounds i8, ptr %0, i64 80
  tail call void @_ZN8AlignSet12initializeGLEv(ptr noundef nonnull align 8 dereferenceable(272) %22)
  tail call void @_ZN8AlignSet6resizeEi(ptr noundef nonnull align 8 dereferenceable(272) %22, i32 noundef 800)
  br label %23

23:                                               ; preds = %19, %17, %7, %1, %21
  %.str.60.sink = phi ptr [ @.str.60, %21 ], [ @.str.49, %1 ], [ @.str.51, %7 ], [ @.str.57, %17 ], [ @.str.59, %19 ]
  %.0 = phi i1 [ true, %21 ], [ false, %1 ], [ false, %7 ], [ false, %17 ], [ false, %19 ]
  %24 = load ptr, ptr %0, align 8
  %25 = getelementptr i8, ptr %24, i64 -32
  %26 = load i64, ptr %25, align 8
  %27 = getelementptr inbounds i8, ptr %0, i64 %26
  tail call void @_ZNK19MeshLabPluginLogger3logEPKc(ptr noundef nonnull align 8 dereferenceable(16) %27, ptr noundef nonnull %.str.60.sink)
  ret i1 %.0
}